; ModuleID = 'source-C-CXX/49/2368.cpp'
source_filename = "source-C-CXX/49/2368.cpp"
target datalayout = "e-m:e-p270:32:32-p271:32:32-p272:64:64-i64:64-f80:128-n8:16:32:64-S128"
target triple = "x86_64-pc-linux-gnu"

%"class.std::ios_base::Init" = type { i8 }
%"class.std::basic_istream" = type { i32 (...)**, i64, %"class.std::basic_ios" }
%"class.std::basic_ios" = type { %"class.std::ios_base", %"class.std::basic_ostream"*, i8, i8, %"class.std::basic_streambuf"*, %"class.std::ctype"*, %"class.std::num_put"*, %"class.std::num_get"* }
%"class.std::ios_base" = type { i32 (...)**, i64, i64, i32, i32, i32, %"struct.std::ios_base::_Callback_list"*, %"struct.std::ios_base::_Words", [8 x %"struct.std::ios_base::_Words"], i32, %"struct.std::ios_base::_Words"*, %"class.std::locale" }
%"struct.std::ios_base::_Callback_list" = type { %"struct.std::ios_base::_Callback_list"*, void (i32, %"class.std::ios_base"*, i32)*, i32, i32 }
%"struct.std::ios_base::_Words" = type { i8*, i64 }
%"class.std::locale" = type { %"class.std::locale::_Impl"* }
%"class.std::locale::_Impl" = type { i32, %"class.std::locale::facet"**, i64, %"class.std::locale::facet"**, i8** }
%"class.std::locale::facet" = type <{ i32 (...)**, i32, [4 x i8] }>
%"class.std::basic_ostream" = type { i32 (...)**, %"class.std::basic_ios" }
%"class.std::basic_streambuf" = type { i32 (...)**, i8*, i8*, i8*, i8*, i8*, i8*, %"class.std::locale" }
%"class.std::ctype" = type <{ %"class.std::locale::facet.base", [4 x i8], %struct.__locale_struct*, i8, [7 x i8], i32*, i32*, i16*, i8, [256 x i8], [256 x i8], i8, [6 x i8] }>
%"class.std::locale::facet.base" = type <{ i32 (...)**, i32 }>
%struct.__locale_struct = type { [13 x %struct.__locale_data*], i16*, i32*, i32*, [13 x i8*] }
%struct.__locale_data = type opaque
%"class.std::num_put" = type { %"class.std::locale::facet.base", [4 x i8] }
%"class.std::num_get" = type { %"class.std::locale::facet.base", [4 x i8] }

@_ZStL8__ioinit = internal global %"class.std::ios_base::Init" zeroinitializer, align 1
@__dso_handle = external hidden global i8
@_ZSt3cin = external global %"class.std::basic_istream", align 8
@_ZSt4cout = external global %"class.std::basic_ostream", align 8
@llvm.global_ctors = appending global [1 x { i32, void ()*, i8* }] [{ i32, void ()*, i8* } { i32 65535, void ()* @_GLOBAL__sub_I_2368.cpp, i8* null }]

declare void @_ZNSt8ios_base4InitC1Ev(%"class.std::ios_base::Init"* nonnull align 1 dereferenceable(1)) unnamed_addr #0

; Function Attrs: nounwind
declare void @_ZNSt8ios_base4InitD1Ev(%"class.std::ios_base::Init"* nonnull align 1 dereferenceable(1)) unnamed_addr #1

; Function Attrs: nofree nounwind
declare i32 @__cxa_atexit(void (i8*)*, i8*, i8*) local_unnamed_addr #2

; Function Attrs: mustprogress norecurse sspstrong uwtable
define dso_local i32 @main() local_unnamed_addr #3 {
  %1 = alloca i32, align 4
  %2 = bitcast i32* %1 to i8*
  call void @llvm.lifetime.start.p0i8(i64 4, i8* nonnull %2) #7
  %3 = call nonnull align 8 dereferenceable(16) %"class.std::basic_istream"* @_ZNSirsERi(%"class.std::basic_istream"* nonnull align 8 dereferenceable(16) @_ZSt3cin, i32* nonnull align 4 dereferenceable(4) %1)
  br label %4

4:                                                ; preds = %0, %44
  %5 = phi i32 [ 0, %0 ], [ %55, %44 ]
  %6 = phi i32 [ 1, %0 ], [ %56, %44 ]
  %7 = add nuw nsw i32 %5, 12
  %8 = urem i32 %7, 7
  %9 = load i32, i32* %1, align 4, !tbaa !5
  %10 = add nsw i32 %9, %8
  %11 = srem i32 %10, 7
  %12 = icmp eq i32 %11, 5
  br i1 %12, label %13, label %44

13:                                               ; preds = %4
  %14 = call nonnull align 8 dereferenceable(8) %"class.std::basic_ostream"* @_ZNSolsEi(%"class.std::basic_ostream"* nonnull align 8 dereferenceable(8) @_ZSt4cout, i32 %6)
  %15 = bitcast %"class.std::basic_ostream"* %14 to i8**
  %16 = load i8*, i8** %15, align 8, !tbaa !9
  %17 = getelementptr i8, i8* %16, i64 -24
  %18 = bitcast i8* %17 to i64*
  %19 = load i64, i64* %18, align 8
  %20 = bitcast %"class.std::basic_ostream"* %14 to i8*
  %21 = add nsw i64 %19, 240
  %22 = getelementptr inbounds i8, i8* %20, i64 %21
  %23 = bitcast i8* %22 to %"class.std::ctype"**
  %24 = load %"class.std::ctype"*, %"class.std::ctype"** %23, align 8, !tbaa !11
  %25 = icmp eq %"class.std::ctype"* %24, null
  br i1 %25, label %26, label %27

26:                                               ; preds = %13
  call void @_ZSt16__throw_bad_castv() #8
  unreachable

27:                                               ; preds = %13
  %28 = getelementptr inbounds %"class.std::ctype", %"class.std::ctype"* %24, i64 0, i32 8
  %29 = load i8, i8* %28, align 8, !tbaa !15
  %30 = icmp eq i8 %29, 0
  br i1 %30, label %34, label %31

31:                                               ; preds = %27
  %32 = getelementptr inbounds %"class.std::ctype", %"class.std::ctype"* %24, i64 0, i32 9, i64 10
  %33 = load i8, i8* %32, align 1, !tbaa !17
  br label %40

34:                                               ; preds = %27
  call void @_ZNKSt5ctypeIcE13_M_widen_initEv(%"class.std::ctype"* nonnull align 8 dereferenceable(570) %24)
  %35 = bitcast %"class.std::ctype"* %24 to i8 (%"class.std::ctype"*, i8)***
  %36 = load i8 (%"class.std::ctype"*, i8)**, i8 (%"class.std::ctype"*, i8)*** %35, align 8, !tbaa !9
  %37 = getelementptr inbounds i8 (%"class.std::ctype"*, i8)*, i8 (%"class.std::ctype"*, i8)** %36, i64 6
  %38 = load i8 (%"class.std::ctype"*, i8)*, i8 (%"class.std::ctype"*, i8)** %37, align 8
  %39 = call signext i8 %38(%"class.std::ctype"* nonnull align 8 dereferenceable(570) %24, i8 signext 10)
  br label %40

40:                                               ; preds = %31, %34
  %41 = phi i8 [ %33, %31 ], [ %39, %34 ]
  %42 = call nonnull align 8 dereferenceable(8) %"class.std::basic_ostream"* @_ZNSo3putEc(%"class.std::basic_ostream"* nonnull align 8 dereferenceable(8) %14, i8 signext %41)
  %43 = call nonnull align 8 dereferenceable(8) %"class.std::basic_ostream"* @_ZNSo5flushEv(%"class.std::basic_ostream"* nonnull align 8 dereferenceable(8) %42)
  br label %44

44:                                               ; preds = %40, %4
  %45 = and i32 %6, 2147483641
  %46 = icmp eq i32 %45, 1
  %47 = and i32 %6, 2147483645
  %48 = icmp eq i32 %47, 8
  %49 = or i1 %48, %46
  %50 = icmp eq i32 %6, 12
  %51 = select i1 %49, i1 true, i1 %50
  %52 = icmp eq i32 %6, 2
  %53 = select i1 %52, i32 28, i32 30
  %54 = select i1 %51, i32 31, i32 %53
  %55 = add nuw nsw i32 %5, %54
  %56 = add nuw nsw i32 %6, 1
  %57 = icmp eq i32 %56, 13
  br i1 %57, label %58, label %4, !llvm.loop !18

58:                                               ; preds = %44
  call void @llvm.lifetime.end.p0i8(i64 4, i8* nonnull %2) #7
  ret i32 0
}

; Function Attrs: argmemonly mustprogress nofree nosync nounwind willreturn
declare void @llvm.lifetime.start.p0i8(i64 immarg, i8* nocapture) #4

declare nonnull align 8 dereferenceable(16) %"class.std::basic_istream"* @_ZNSirsERi(%"class.std::basic_istream"* nonnull align 8 dereferenceable(16), i32* nonnull align 4 dereferenceable(4)) local_unnamed_addr #0

declare nonnull align 8 dereferenceable(8) %"class.std::basic_ostream"* @_ZNSolsEi(%"class.std::basic_ostream"* nonnull align 8 dereferenceable(8), i32) local_unnamed_addr #0

; Function Attrs: argmemonly mustprogress nofree nosync nounwind willreturn
declare void @llvm.lifetime.end.p0i8(i64 immarg, i8* nocapture) #4

declare nonnull align 8 dereferenceable(8) %"class.std::basic_ostream"* @_ZNSo3putEc(%"class.std::basic_ostream"* nonnull align 8 dereferenceable(8), i8 signext) local_unnamed_addr #0

declare nonnull align 8 dereferenceable(8) %"class.std::basic_ostream"* @_ZNSo5flushEv(%"class.std::basic_ostream"* nonnull align 8 dereferenceable(8)) local_unnamed_addr #0

; Function Attrs: noreturn
declare void @_ZSt16__throw_bad_castv() local_unnamed_addr #5

declare void @_ZNKSt5ctypeIcE13_M_widen_initEv(%"class.std::ctype"* nonnull align 8 dereferenceable(570)) local_unnamed_addr #0

; Function Attrs: sspstrong uwtable
define internal void @_GLOBAL__sub_I_2368.cpp() #6 section ".text.startup" {
  tail call void @_ZNSt8ios_base4InitC1Ev(%"class.std::ios_base::Init"* nonnull align 1 dereferenceable(1) @_ZStL8__ioinit)
  %1 = tail call i32 @__cxa_atexit(void (i8*)* bitcast (void (%"class.std::ios_base::Init"*)* @_ZNSt8ios_base4InitD1Ev to void (i8*)*), i8* getelementptr inbounds (%"class.std::ios_base::Init", %"class.std::ios_base::Init"* @_ZStL8__ioinit, i64 0, i32 0), i8* nonnull @__dso_handle) #7
  ret void
}


!llvm.module.flags = !{!0, !1, !2, !3}
!llvm.ident = !{!4}

!0 = !{i32 1, !"wchar_size", i32 4}
!1 = !{i32 7, !"PIC Level", i32 2}
!2 = !{i32 7, !"PIE Level", i32 2}
!3 = !{i32 7, !"uwtable", i32 1}
!4 = !{!"clang version 13.0.0"}
!5 = !{!6, !6, i64 0}
!6 = !{!"int", !7, i64 0}
!7 = !{!"omnipotent char", !8, i64 0}
!8 = !{!"Simple C++ TBAA"}
!9 = !{!10, !10, i64 0}
!10 = !{!"vtable pointer", !8, i64 0}
!11 = !{!12, !13, i64 240}
!12 = !{!"_ZTSSt9basic_iosIcSt11char_traitsIcEE", !13, i64 216, !7, i64 224, !14, i64 225, !13, i64 232, !13, i64 240, !13, i64 248, !13, i64 256}
!13 = !{!"any pointer", !7, i64 0}
!14 = !{!"bool", !7, i64 0}
!15 = !{!16, !7, i64 56}
!16 = !{!"_ZTSSt5ctypeIcE", !13, i64 16, !14, i64 24, !13, i64 32, !13, i64 40, !13, i64 48, !7, i64 56, !7, i64 57, !7, i64 313, !7, i64 569}
!17 = !{!7, !7, i64 0}
!18 = distinct !{!18, !19}
!19 = !{!"llvm.loop.mustprogress"}
